target datalayout = "e-m:e-p270:32:32-p271:32:32-p272:64:64-i64:64-i128:128-f80:128-n8:16:32:64-S128"
target triple = "x86_64-pc-linux-gnu"

%class.LayoutRawBlock = type <{ ptr, ptr, i32, i32, i32, i32, i32, i8, [3 x i8] }>

; Function Attrs: mustprogress nounwind uwtable
define hidden noundef zeroext i1 @_ZN14LayoutRawBlock3fitEii(ptr noundef nonnull align 8 dereferenceable(37) %0, i32 noundef %1, i32 noundef %2) #1 align 2 {
  %4 = alloca ptr, align 8
  %5 = alloca i32, align 4
  %6 = alloca i32, align 4
  %7 = alloca i32, align 4
  store ptr %0, ptr %4, align 8
  store i32 %1, ptr %5, align 4
  store i32 %2, ptr %6, align 4
  %8 = load ptr, ptr %4, align 8
  store i32 0, ptr %7, align 4
  %9 = getelementptr inbounds %class.LayoutRawBlock, ptr %8, i32 0, i32 3
  %10 = load i32, ptr %9, align 4
  %11 = load i32, ptr %6, align 4
  %12 = srem i32 %10, %11
  %13 = icmp ne i32 %12, 0
  br i1 %13, label %14, label %21

14:                                               ; preds = %3
  %15 = load i32, ptr %6, align 4
  %16 = getelementptr inbounds %class.LayoutRawBlock, ptr %8, i32 0, i32 3
  %17 = load i32, ptr %16, align 4
  %18 = load i32, ptr %6, align 4
  %19 = srem i32 %17, %18
  %20 = sub nsw i32 %15, %19
  store i32 %20, ptr %7, align 4
  br label %21

21:                                               ; preds = %14, %3
  %22 = getelementptr inbounds %class.LayoutRawBlock, ptr %8, i32 0, i32 5
  %23 = load i32, ptr %22, align 4
  %24 = load i32, ptr %5, align 4
  %25 = load i32, ptr %7, align 4
  %26 = add nsw i32 %24, %25
  %27 = icmp sge i32 %23, %26
  ret i1 %27
}