; Function Attrs: mustprogress nofree norecurse nosync nounwind willreturn memory(argmem: read) uwtable
define hidden noundef zeroext i1 @_ZN14LayoutRawBlock3fitEii(ptr nocapture noundef nonnull readonly align 8 dereferenceable(37) %0, i32 noundef %1, i32 noundef %2) local_unnamed_addr #1 align 2 {
  %4 = getelementptr inbounds i8, ptr %0, i64 20
  %5 = load i32, ptr %4, align 4
  %6 = srem i32 %5, %2
  %.not = icmp eq i32 %6, 0
  %7 = sub nsw i32 %2, %6
  %spec.select = select i1 %.not, i32 0, i32 %7
  %8 = getelementptr inbounds i8, ptr %0, i64 28
  %9 = load i32, ptr %8, align 4
  %10 = add nsw i32 %spec.select, %1
  %11 = icmp sge i32 %9, %10
  ret i1 %11
}